target datalayout = "e-m:e-p270:32:32-p271:32:32-p272:64:64-i64:64-i128:128-f80:128-n8:16:32:64-S128"
target triple = "x86_64-pc-linux-gnu"

%struct.ParseRule = type { ptr, ptr, i32 }
%struct.ParseContext_ = type { %struct.TokenData, i32, %union.SourceSpan, %union.SourceSpan, ptr, %struct.Lexer }
%struct.TokenData = type { ptr, i64, %union.anon.86 }
%union.anon.86 = type { %struct.anon.89 }
%struct.anon.89 = type { %struct.Int128_, i8 }
%struct.Int128_ = type { i64, i64 }
%union.SourceSpan = type { i64 }
%struct.Lexer = type { ptr, ptr, ptr, ptr, i32, i32, ptr, ptr, ptr, %struct.TokenData, %union.SourceSpan, i32, i32 }
%struct.Expr_ = type { ptr, %union.SourceSpan, i16, %union.anon.30 }
%union.anon.30 = type { %struct.ExprAnySwitch }
%struct.ExprAnySwitch = type { i8, %union.anon.32 }
%union.anon.32 = type { %struct.anon.33 }
%struct.anon.33 = type { ptr, %union.SourceSpan, ptr }

@.str.1 = private unnamed_addr constant [82 x i8] c"'%s' can't appear in this position, did you forget something before the operator?\00", align 1
@poisoned_expr = external global ptr, align 8
@.str.21 = private unnamed_addr constant [28 x i8] c"An expression was expected.\00", align 1

; Function Attrs: nounwind uwtable
define dso_local ptr @parse_precedence_with_left_side(ptr noundef %0, ptr noundef %1, i32 noundef %2) #0 {
  %4 = alloca ptr, align 8
  %5 = alloca ptr, align 8
  %6 = alloca ptr, align 8
  %7 = alloca ptr, align 8
  %8 = alloca i32, align 4
  %9 = alloca i32, align 4
  %10 = alloca i32, align 4
  %11 = alloca ptr, align 8
  store ptr %0, ptr %6, align 8
  store ptr %1, ptr %7, align 8
  store i32 %2, ptr %8, align 4
  br label %12

12:                                               ; preds = %56, %3
  %13 = load ptr, ptr %6, align 8
  %14 = getelementptr inbounds %struct.ParseContext_, ptr %13, i32 0, i32 1
  %15 = load i32, ptr %14, align 8
  store i32 %15, ptr %9, align 4
  %16 = load i32, ptr %9, align 4
  %17 = zext i32 %16 to i64
  %18 = getelementptr inbounds [190 x %struct.ParseRule], ptr @rules, i64 0, i64 %17
  %19 = getelementptr inbounds %struct.ParseRule, ptr %18, i32 0, i32 2
  %20 = load i32, ptr %19, align 8
  store i32 %20, ptr %10, align 4
  %21 = load i32, ptr %8, align 4
  %22 = load i32, ptr %10, align 4
  %23 = icmp ugt i32 %21, %22
  br i1 %23, label %24, label %25

24:                                               ; preds = %12
  br label %61

25:                                               ; preds = %12
  %26 = load ptr, ptr %7, align 8
  store ptr %26, ptr %4, align 8
  %27 = load ptr, ptr %4, align 8
  %28 = icmp eq ptr %27, null
  br i1 %28, label %36, label %29

29:                                               ; preds = %25
  %30 = load ptr, ptr %4, align 8
  %31 = getelementptr inbounds %struct.Expr_, ptr %30, i32 0, i32 2
  %32 = load i16, ptr %31, align 8
  %33 = and i16 %32, 255
  %34 = zext i16 %33 to i32
  %35 = icmp ne i32 %34, 0
  br label %36

36:                                               ; preds = %29, %25
  %37 = phi i1 [ true, %25 ], [ %35, %29 ]
  br i1 %37, label %40, label %38

38:                                               ; preds = %36
  %39 = load ptr, ptr %7, align 8
  store ptr %39, ptr %5, align 8
  br label %63

40:                                               ; preds = %36
  %41 = load i32, ptr %9, align 4
  %42 = zext i32 %41 to i64
  %43 = getelementptr inbounds [190 x %struct.ParseRule], ptr @rules, i64 0, i64 %42
  %44 = getelementptr inbounds %struct.ParseRule, ptr %43, i32 0, i32 1
  %45 = load ptr, ptr %44, align 8
  store ptr %45, ptr %11, align 8
  %46 = load ptr, ptr %11, align 8
  %47 = icmp ne ptr %46, null
  br i1 %47, label %56, label %48

48:                                               ; preds = %40
  %49 = load ptr, ptr %6, align 8
  %50 = getelementptr inbounds %struct.ParseContext_, ptr %49, i32 0, i32 2
  %51 = load i32, ptr %9, align 4
  %52 = call ptr @token_type_to_string(i32 noundef %51)
  %53 = getelementptr inbounds %union.SourceSpan, ptr %50, i32 0, i32 0
  %54 = load i64, ptr %53, align 8
  call void (i64, ptr, ...) @sema_error_at(i64 %54, ptr noundef @.str.1, ptr noundef %52)
  %55 = load ptr, ptr @poisoned_expr, align 8
  store ptr %55, ptr %5, align 8
  br label %63

56:                                               ; preds = %40
  %57 = load ptr, ptr %11, align 8
  %58 = load ptr, ptr %6, align 8
  %59 = load ptr, ptr %7, align 8
  %60 = call ptr %57(ptr noundef %58, ptr noundef %59)
  store ptr %60, ptr %7, align 8
  br label %12

61:                                               ; preds = %24
  %62 = load ptr, ptr %7, align 8
  store ptr %62, ptr %5, align 8
  br label %63

63:                                               ; preds = %61, %48, %38
  %64 = load ptr, ptr %5, align 8
  ret ptr %64
}

; Function Attrs: nounwind uwtable
define internal ptr @parse_precedence(ptr noundef %0, i32 noundef %1) #0 {
  %3 = alloca ptr, align 8
  %4 = alloca ptr, align 8
  %5 = alloca ptr, align 8
  %6 = alloca i32, align 4
  %7 = alloca ptr, align 8
  %8 = alloca ptr, align 8
  store ptr %0, ptr %5, align 8
  store i32 %1, ptr %6, align 4
  %9 = load ptr, ptr %5, align 8
  %10 = getelementptr inbounds %struct.ParseContext_, ptr %9, i32 0, i32 1
  %11 = load i32, ptr %10, align 8
  %12 = zext i32 %11 to i64
  %13 = getelementptr inbounds [190 x %struct.ParseRule], ptr @rules, i64 0, i64 %12
  %14 = getelementptr inbounds %struct.ParseRule, ptr %13, i32 0, i32 0
  %15 = load ptr, ptr %14, align 8
  store ptr %15, ptr %7, align 8
  %16 = load ptr, ptr %7, align 8
  %17 = icmp ne ptr %16, null
  br i1 %17, label %24, label %18

18:                                               ; preds = %2
  %19 = load ptr, ptr %5, align 8
  %20 = getelementptr inbounds %struct.ParseContext_, ptr %19, i32 0, i32 2
  %21 = getelementptr inbounds %union.SourceSpan, ptr %20, i32 0, i32 0
  %22 = load i64, ptr %21, align 8
  call void (i64, ptr, ...) @sema_error_at(i64 %22, ptr noundef @.str.21)
  %23 = load ptr, ptr @poisoned_expr, align 8
  store ptr %23, ptr %4, align 8
  br label %47

24:                                               ; preds = %2
  %25 = load ptr, ptr %7, align 8
  %26 = load ptr, ptr %5, align 8
  %27 = call ptr %25(ptr noundef %26, ptr noundef null)
  store ptr %27, ptr %8, align 8
  %28 = load ptr, ptr %8, align 8
  store ptr %28, ptr %3, align 8
  %29 = load ptr, ptr %3, align 8
  %30 = icmp eq ptr %29, null
  br i1 %30, label %38, label %31

31:                                               ; preds = %24
  %32 = load ptr, ptr %3, align 8
  %33 = getelementptr inbounds %struct.Expr_, ptr %32, i32 0, i32 2
  %34 = load i16, ptr %33, align 8
  %35 = and i16 %34, 255
  %36 = zext i16 %35 to i32
  %37 = icmp ne i32 %36, 0
  br label %38

38:                                               ; preds = %31, %24
  %39 = phi i1 [ true, %24 ], [ %37, %31 ]
  br i1 %39, label %42, label %40

40:                                               ; preds = %38
  %41 = load ptr, ptr %8, align 8
  store ptr %41, ptr %4, align 8
  br label %47

42:                                               ; preds = %38
  %43 = load ptr, ptr %5, align 8
  %44 = load ptr, ptr %8, align 8
  %45 = load i32, ptr %6, align 4
  %46 = call ptr @parse_precedence_with_left_side(ptr noundef %43, ptr noundef %44, i32 noundef %45)
  store ptr %46, ptr %4, align 8
  br label %47

47:                                               ; preds = %42, %40, %18
  %48 = load ptr, ptr %4, align 8
  ret ptr %48
}