; Function Attrs: nounwind uwtable
define internal fastcc ptr @parse_precedence(ptr noundef %0, i32 noundef %1) unnamed_addr #1 {
  %3 = getelementptr inbounds i8, ptr %0, i64 40
  %4 = load i32, ptr %3, align 8
  %5 = zext i32 %4 to i64
  %6 = getelementptr inbounds [190 x %struct.ParseRule], ptr @rules, i64 0, i64 %5
  %7 = load ptr, ptr %6, align 8
  %.not = icmp eq ptr %7, null
  br i1 %.not, label %8, label %12

8:                                                ; preds = %2
  %9 = getelementptr inbounds i8, ptr %0, i64 48
  %10 = load i64, ptr %9, align 8
  tail call void (i64, ptr, ...) @sema_error_at(i64 %10, ptr noundef nonnull @.str.21) #8
  %11 = load ptr, ptr @poisoned_expr, align 8
  br label %.critedge

12:                                               ; preds = %2
  %13 = tail call ptr %7(ptr noundef nonnull %0, ptr noundef null) #8
  %14 = icmp eq ptr %13, null
  br i1 %14, label %.split12, label %41

.split12:                                         ; preds = %12
  %15 = load i32, ptr %3, align 8
  %16 = zext i32 %15 to i64
  %17 = getelementptr inbounds [190 x %struct.ParseRule], ptr @rules, i64 0, i64 %16, i32 2
  %18 = load i32, ptr %17, align 8
  %19 = icmp ult i32 %18, %1
  br i1 %19, label %.critedge, label %.lr.ph.i

.lr.ph.i:                                         ; preds = %.split12, %34
  %20 = phi i64 [ %37, %34 ], [ %16, %.split12 ]
  %21 = phi i32 [ %36, %34 ], [ %15, %.split12 ]
  %.01621.i = phi ptr [ %35, %34 ], [ null, %.split12 ]
  %22 = icmp eq ptr %.01621.i, null
  br i1 %22, label %.critedge.i, label %23

23:                                               ; preds = %.lr.ph.i
  %24 = getelementptr inbounds i8, ptr %.01621.i, i64 16
  %25 = load i16, ptr %24, align 8
  %26 = and i16 %25, 255
  %.not.i = icmp eq i16 %26, 0
  br i1 %.not.i, label %.critedge, label %.critedge.i

.critedge.i:                                      ; preds = %23, %.lr.ph.i
  %27 = getelementptr inbounds [190 x %struct.ParseRule], ptr @rules, i64 0, i64 %20, i32 1
  %28 = load ptr, ptr %27, align 8
  %.not18.i = icmp eq ptr %28, null
  br i1 %.not18.i, label %29, label %34

29:                                               ; preds = %.critedge.i
  %30 = getelementptr inbounds i8, ptr %0, i64 48
  %31 = tail call ptr @token_type_to_string(i32 noundef %21) #8
  %32 = load i64, ptr %30, align 8
  tail call void (i64, ptr, ...) @sema_error_at(i64 %32, ptr noundef nonnull @.str.1, ptr noundef %31) #8
  %33 = load ptr, ptr @poisoned_expr, align 8
  br label %.critedge

34:                                               ; preds = %.critedge.i
  %35 = tail call ptr %28(ptr noundef nonnull %0, ptr noundef %.01621.i) #8
  %36 = load i32, ptr %3, align 8
  %37 = zext i32 %36 to i64
  %38 = getelementptr inbounds [190 x %struct.ParseRule], ptr @rules, i64 0, i64 %37, i32 2
  %39 = load i32, ptr %38, align 8
  %40 = icmp ult i32 %39, %1
  br i1 %40, label %.critedge, label %.lr.ph.i

41:                                               ; preds = %12
  %42 = getelementptr inbounds i8, ptr %13, i64 16
  %43 = load i16, ptr %42, align 8
  %44 = and i16 %43, 255
  %.not15 = icmp eq i16 %44, 0
  br i1 %.not15, label %.critedge, label %.split

.split:                                           ; preds = %41
  %45 = load i32, ptr %3, align 8
  %46 = zext i32 %45 to i64
  %47 = getelementptr inbounds [190 x %struct.ParseRule], ptr @rules, i64 0, i64 %46, i32 2
  %48 = load i32, ptr %47, align 8
  %49 = icmp ult i32 %48, %1
  br i1 %49, label %.critedge, label %.lr.ph.i16

.lr.ph.i16:                                       ; preds = %.split, %64
  %50 = phi i64 [ %67, %64 ], [ %46, %.split ]
  %51 = phi i32 [ %66, %64 ], [ %45, %.split ]
  %.01621.i17 = phi ptr [ %65, %64 ], [ %13, %.split ]
  %52 = icmp eq ptr %.01621.i17, null
  br i1 %52, label %.critedge.i19, label %53

53:                                               ; preds = %.lr.ph.i16
  %54 = getelementptr inbounds i8, ptr %.01621.i17, i64 16
  %55 = load i16, ptr %54, align 8
  %56 = and i16 %55, 255
  %.not.i18 = icmp eq i16 %56, 0
  br i1 %.not.i18, label %.critedge, label %.critedge.i19

.critedge.i19:                                    ; preds = %53, %.lr.ph.i16
  %57 = getelementptr inbounds [190 x %struct.ParseRule], ptr @rules, i64 0, i64 %50, i32 1
  %58 = load ptr, ptr %57, align 8
  %.not18.i20 = icmp eq ptr %58, null
  br i1 %.not18.i20, label %59, label %64

59:                                               ; preds = %.critedge.i19
  %60 = getelementptr inbounds i8, ptr %0, i64 48
  %61 = tail call ptr @token_type_to_string(i32 noundef %51) #8
  %62 = load i64, ptr %60, align 8
  tail call void (i64, ptr, ...) @sema_error_at(i64 %62, ptr noundef nonnull @.str.1, ptr noundef %61) #8
  %63 = load ptr, ptr @poisoned_expr, align 8
  br label %.critedge

64:                                               ; preds = %.critedge.i19
  %65 = tail call ptr %58(ptr noundef nonnull %0, ptr noundef %.01621.i17) #8
  %66 = load i32, ptr %3, align 8
  %67 = zext i32 %66 to i64
  %68 = getelementptr inbounds [190 x %struct.ParseRule], ptr @rules, i64 0, i64 %67, i32 2
  %69 = load i32, ptr %68, align 8
  %70 = icmp ult i32 %69, %1
  br i1 %70, label %.critedge, label %.lr.ph.i16

.critedge:                                        ; preds = %64, %53, %34, %23, %59, %.split, %29, %.split12, %41, %8
  %.0 = phi ptr [ %11, %8 ], [ %13, %41 ], [ %33, %29 ], [ null, %.split12 ], [ %63, %59 ], [ %13, %.split ], [ %35, %34 ], [ %.01621.i, %23 ], [ %65, %64 ], [ %.01621.i17, %53 ]
  ret ptr %.0
}